; Function Attrs: mustprogress uwtable
define hidden void @_ZN3opt10opt_solver10get_labelsER7svectorI6symboljE(ptr noundef nonnull align 8 dereferenceable(1042) %0, ptr noundef nonnull align 8 dereferenceable(8) %1) unnamed_addr #4 align 2 personality ptr @__gxx_personality_v0 {
  %3 = alloca %class.buffer.507, align 8
  %4 = load ptr, ptr %1, align 8, !tbaa !427
  %.not.i = icmp eq ptr %4, null
  br i1 %.not.i, label %_ZN6vectorI6symbolLb0EjE5resetEv.exit, label %5

5:                                                ; preds = %2
  %6 = getelementptr inbounds i8, ptr %4, i64 -4
  store i32 0, ptr %6, align 4, !tbaa !263
  br label %_ZN6vectorI6symbolLb0EjE5resetEv.exit

_ZN6vectorI6symbolLb0EjE5resetEv.exit:            ; preds = %2, %5
  call void @llvm.lifetime.start.p0(i64 144, ptr nonnull %3) #26
  %7 = getelementptr inbounds nuw i8, ptr %3, i64 16
  store ptr %7, ptr %3, align 8, !tbaa !428
  %8 = getelementptr inbounds nuw i8, ptr %3, i64 8
  store i32 0, ptr %8, align 8, !tbaa !430
  %9 = getelementptr inbounds nuw i8, ptr %3, i64 12
  store i32 16, ptr %9, align 4, !tbaa !431
  %10 = getelementptr inbounds nuw i8, ptr %0, i64 928
  invoke void @_ZN3smt6kernel19get_relevant_labelsEP4exprR6bufferI6symbolLb1ELj16EE(ptr noundef nonnull align 8 dereferenceable(8) %10, ptr noundef null, ptr noundef nonnull align 8 dereferenceable(144) %3)
          to label %11 unwind label %.loopexit.split-lp

11:                                               ; preds = %_ZN6vectorI6symbolLb0EjE5resetEv.exit
  %12 = load i32, ptr %8, align 8, !tbaa !430
  %13 = load ptr, ptr %3, align 8, !tbaa !428
  %.not.i4 = icmp eq i32 %12, 0
  br i1 %.not.i4, label %_ZN6vectorI6symbolLb0EjE6appendEjPKS0_.exit, label %.lr.ph.preheader.i

.lr.ph.preheader.i:                               ; preds = %11
  %wide.trip.count.i = zext i32 %12 to i64
  %.pre.i = load ptr, ptr %1, align 8, !tbaa !427
  br label %.lr.ph.i

.lr.ph.i:                                         ; preds = %_ZN6vectorI6symbolLb0EjE9push_backERKS0_.exit.i, %.lr.ph.preheader.i
  %14 = phi ptr [ %.pre.i, %.lr.ph.preheader.i ], [ %24, %_ZN6vectorI6symbolLb0EjE9push_backERKS0_.exit.i ]
  %indvars.iv.i = phi i64 [ 0, %.lr.ph.preheader.i ], [ %indvars.iv.next.i, %_ZN6vectorI6symbolLb0EjE9push_backERKS0_.exit.i ]
  %15 = getelementptr inbounds nuw %class.symbol, ptr %13, i64 %indvars.iv.i
  %16 = icmp eq ptr %14, null
  br i1 %16, label %23, label %17

17:                                               ; preds = %.lr.ph.i
  %18 = getelementptr inbounds i8, ptr %14, i64 -4
  %19 = load i32, ptr %18, align 4, !tbaa !263
  %20 = getelementptr inbounds i8, ptr %14, i64 -8
  %21 = load i32, ptr %20, align 4, !tbaa !263
  %22 = icmp eq i32 %19, %21
  br i1 %22, label %23, label %_ZN6vectorI6symbolLb0EjE9push_backERKS0_.exit.i

23:                                               ; preds = %17, %.lr.ph.i
  invoke void @_ZN6vectorI6symbolLb0EjE13expand_vectorEv(ptr noundef nonnull align 8 dereferenceable(8) %1)
          to label %.noexc unwind label %.loopexit

.noexc:                                           ; preds = %23
  %.pre.i.i = load ptr, ptr %1, align 8, !tbaa !427
  %.phi.trans.insert.i.i = getelementptr inbounds i8, ptr %.pre.i.i, i64 -4
  %.pre2.i.i = load i32, ptr %.phi.trans.insert.i.i, align 4, !tbaa !263
  br label %_ZN6vectorI6symbolLb0EjE9push_backERKS0_.exit.i

_ZN6vectorI6symbolLb0EjE9push_backERKS0_.exit.i:  ; preds = %.noexc, %17
  %24 = phi ptr [ %.pre.i.i, %.noexc ], [ %14, %17 ]
  %25 = phi i32 [ %.pre2.i.i, %.noexc ], [ %19, %17 ]
  %26 = getelementptr inbounds i8, ptr %24, i64 -4
  %27 = zext i32 %25 to i64
  %28 = getelementptr inbounds nuw %class.symbol, ptr %24, i64 %27
  %29 = load i64, ptr %15, align 8, !tbaa !250
  store i64 %29, ptr %28, align 8, !tbaa !250
  %30 = add i32 %25, 1
  store i32 %30, ptr %26, align 4, !tbaa !263
  %indvars.iv.next.i = add nuw nsw i64 %indvars.iv.i, 1
  %exitcond.not.i = icmp eq i64 %indvars.iv.next.i, %wide.trip.count.i
  br i1 %exitcond.not.i, label %_ZN6vectorI6symbolLb0EjE6appendEjPKS0_.exit.loopexit, label %.lr.ph.i, !llvm.loop !432

_ZN6vectorI6symbolLb0EjE6appendEjPKS0_.exit.loopexit: ; preds = %_ZN6vectorI6symbolLb0EjE9push_backERKS0_.exit.i
  %.pre = load ptr, ptr %3, align 8, !tbaa !428
  br label %_ZN6vectorI6symbolLb0EjE6appendEjPKS0_.exit

_ZN6vectorI6symbolLb0EjE6appendEjPKS0_.exit:      ; preds = %_ZN6vectorI6symbolLb0EjE6appendEjPKS0_.exit.loopexit, %11
  %31 = phi ptr [ %.pre, %_ZN6vectorI6symbolLb0EjE6appendEjPKS0_.exit.loopexit ], [ %13, %11 ]
  %.not.i.i.i = icmp eq ptr %31, %7
  %32 = icmp eq ptr %31, null
  %or.cond.i.i.i = or i1 %.not.i.i.i, %32
  br i1 %or.cond.i.i.i, label %_ZN6bufferI6symbolLb1ELj16EED2Ev.exit, label %33

33:                                               ; preds = %_ZN6vectorI6symbolLb0EjE6appendEjPKS0_.exit
  invoke void @_ZN6memory10deallocateEPv(ptr noundef nonnull %31)
          to label %_ZN6bufferI6symbolLb1ELj16EED2Ev.exit unwind label %34

34:                                               ; preds = %33
  %35 = landingpad { ptr, i32 }
          catch ptr null
  %36 = extractvalue { ptr, i32 } %35, 0
  call void @__clang_call_terminate(ptr %36) #27
  unreachable

_ZN6bufferI6symbolLb1ELj16EED2Ev.exit:            ; preds = %_ZN6vectorI6symbolLb0EjE6appendEjPKS0_.exit, %33
  call void @llvm.lifetime.end.p0(i64 144, ptr nonnull %3) #26
  ret void

.loopexit:                                        ; preds = %23
  %lpad.loopexit = landingpad { ptr, i32 }
          cleanup
  br label %37

.loopexit.split-lp:                               ; preds = %_ZN6vectorI6symbolLb0EjE5resetEv.exit
  %lpad.loopexit.split-lp = landingpad { ptr, i32 }
          cleanup
  br label %37

37:                                               ; preds = %.loopexit.split-lp, %.loopexit
  %lpad.phi = phi { ptr, i32 } [ %lpad.loopexit, %.loopexit ], [ %lpad.loopexit.split-lp, %.loopexit.split-lp ]
  call void @_ZN6bufferI6symbolLb1ELj16EED2Ev(ptr noundef nonnull align 8 dereferenceable(144) %3) #26
  call void @llvm.lifetime.end.p0(i64 144, ptr nonnull %3) #26
  resume { ptr, i32 } %lpad.phi
}